; Function Attrs: nounwind uwtable
define i32 @phpdbg_log_internal(i32 noundef %0, ptr noundef %1, ...) local_unnamed_addr #0 {
  %3 = alloca [1 x %struct.__va_list_tag], align 16
  %4 = alloca ptr, align 8
  call void @llvm.va_start(ptr nonnull %3)
  %5 = call i32 @vasprintf(ptr noundef nonnull %4, ptr noundef %1, ptr noundef nonnull %3) #10
  call void @llvm.va_end(ptr nonnull %3)
  %6 = load ptr, ptr %4, align 8
  %7 = call i32 @phpdbg_mixed_write(i32 noundef %0, ptr noundef %6, i32 noundef %5) #10
  %8 = load ptr, ptr %4, align 8
  call void @free(ptr noundef %8) #10
  ret i32 %7
}